; ModuleID = '36/1001.c'
source_filename = "36/1001.c"
target datalayout = "e-m:e-p270:32:32-p271:32:32-p272:64:64-i64:64-f80:128-n8:16:32:64-S128"
target triple = "x86_64-pc-linux-gnu"

@.str = private unnamed_addr constant [6 x i8] c"%s %s\00", align 1
@.str.1 = private unnamed_addr constant [4 x i8] c"YES\00", align 1
@.str.2 = private unnamed_addr constant [3 x i8] c"NO\00", align 1

; Function Attrs: noinline nounwind uwtable
define dso_local i32 @rearrange(i8* %0, i8* %1) #0 {
  %3 = alloca i32, align 4
  %4 = alloca i8*, align 8
  %5 = alloca i8*, align 8
  %6 = alloca [128 x i32], align 16
  %7 = alloca [128 x i32], align 16
  %8 = alloca i32, align 4
  %9 = alloca i32, align 4
  store i8* %0, i8** %4, align 8
  store i8* %1, i8** %5, align 8
  %10 = bitcast [128 x i32]* %6 to i8*
  call void @llvm.memset.p0i8.i64(i8* align 16 %10, i8 0, i64 512, i1 false)
  %11 = bitcast [128 x i32]* %7 to i8*
  call void @llvm.memset.p0i8.i64(i8* align 16 %11, i8 0, i64 512, i1 false)
  %12 = load i8*, i8** %4, align 8
  %13 = call i64 @strlen(i8* %12) #4
  %14 = trunc i64 %13 to i32
  store i32 %14, i32* %8, align 4
  %15 = load i8*, i8** %5, align 8
  %16 = call i64 @strlen(i8* %15) #4
  %17 = trunc i64 %16 to i32
  store i32 %17, i32* %9, align 4
  %18 = load i32, i32* %8, align 4
  %19 = load i32, i32* %9, align 4
  %20 = icmp ne i32 %18, %19
  br i1 %20, label %21, label %22

21:                                               ; preds = %2
  store i32 0, i32* %3, align 4
  br label %69

22:                                               ; preds = %2
  store i32 0, i32* %9, align 4
  br label %23

23:                                               ; preds = %46, %22
  %24 = load i32, i32* %9, align 4
  %25 = load i32, i32* %8, align 4
  %26 = icmp slt i32 %24, %25
  br i1 %26, label %27, label %49

27:                                               ; preds = %23
  %28 = load i8*, i8** %4, align 8
  %29 = load i32, i32* %9, align 4
  %30 = sext i32 %29 to i64
  %31 = getelementptr inbounds i8, i8* %28, i64 %30
  %32 = load i8, i8* %31, align 1
  %33 = sext i8 %32 to i64
  %34 = getelementptr inbounds [128 x i32], [128 x i32]* %6, i64 0, i64 %33
  %35 = load i32, i32* %34, align 4
  %36 = add nsw i32 %35, 1
  store i32 %36, i32* %34, align 4
  %37 = load i8*, i8** %5, align 8
  %38 = load i32, i32* %9, align 4
  %39 = sext i32 %38 to i64
  %40 = getelementptr inbounds i8, i8* %37, i64 %39
  %41 = load i8, i8* %40, align 1
  %42 = sext i8 %41 to i64
  %43 = getelementptr inbounds [128 x i32], [128 x i32]* %7, i64 0, i64 %42
  %44 = load i32, i32* %43, align 4
  %45 = add nsw i32 %44, 1
  store i32 %45, i32* %43, align 4
  br label %46

46:                                               ; preds = %27
  %47 = load i32, i32* %9, align 4
  %48 = add nsw i32 %47, 1
  store i32 %48, i32* %9, align 4
  br label %23

49:                                               ; preds = %23
  store i32 0, i32* %9, align 4
  br label %50

50:                                               ; preds = %65, %49
  %51 = load i32, i32* %9, align 4
  %52 = icmp slt i32 %51, 128
  br i1 %52, label %53, label %68

53:                                               ; preds = %50
  %54 = load i32, i32* %9, align 4
  %55 = sext i32 %54 to i64
  %56 = getelementptr inbounds [128 x i32], [128 x i32]* %6, i64 0, i64 %55
  %57 = load i32, i32* %56, align 4
  %58 = load i32, i32* %9, align 4
  %59 = sext i32 %58 to i64
  %60 = getelementptr inbounds [128 x i32], [128 x i32]* %7, i64 0, i64 %59
  %61 = load i32, i32* %60, align 4
  %62 = icmp ne i32 %57, %61
  br i1 %62, label %63, label %64

63:                                               ; preds = %53
  store i32 0, i32* %3, align 4
  br label %69

64:                                               ; preds = %53
  br label %65

65:                                               ; preds = %64
  %66 = load i32, i32* %9, align 4
  %67 = add nsw i32 %66, 1
  store i32 %67, i32* %9, align 4
  br label %50

68:                                               ; preds = %50
  store i32 1, i32* %3, align 4
  br label %69

69:                                               ; preds = %68, %63, %21
  %70 = load i32, i32* %3, align 4
  ret i32 %70
}

; Function Attrs: argmemonly nounwind willreturn
declare void @llvm.memset.p0i8.i64(i8* nocapture writeonly, i8, i64, i1 immarg) #1

; Function Attrs: nounwind readonly
declare dso_local i64 @strlen(i8*) #2

; Function Attrs: noinline nounwind uwtable
define dso_local void @main() #0 {
  %1 = alloca i32, align 4
  %2 = alloca i32, align 4
  %3 = alloca i32, align 4
  %4 = alloca i32, align 4
  %5 = alloca i32, align 4
  %6 = alloca i32, align 4
  %7 = alloca i32, align 4
  %8 = alloca [51 x i8], align 16
  %9 = alloca [51 x i8], align 16
  %10 = getelementptr inbounds [51 x i8], [51 x i8]* %8, i64 0, i64 0
  %11 = getelementptr inbounds [51 x i8], [51 x i8]* %9, i64 0, i64 0
  %12 = call i32 (i8*, ...) @__isoc99_scanf(i8* getelementptr inbounds ([6 x i8], [6 x i8]* @.str, i64 0, i64 0), i8* %10, i8* %11)
  %13 = getelementptr inbounds [51 x i8], [51 x i8]* %8, i64 0, i64 0
  %14 = getelementptr inbounds [51 x i8], [51 x i8]* %9, i64 0, i64 0
  %15 = call i32 @rearrange(i8* %13, i8* %14)
  %16 = icmp ne i32 %15, 0
  br i1 %16, label %17, label %19

17:                                               ; preds = %0
  %18 = call i32 (i8*, ...) @printf(i8* getelementptr inbounds ([4 x i8], [4 x i8]* @.str.1, i64 0, i64 0))
  br label %21

19:                                               ; preds = %0
  %20 = call i32 (i8*, ...) @printf(i8* getelementptr inbounds ([3 x i8], [3 x i8]* @.str.2, i64 0, i64 0))
  br label %21

21:                                               ; preds = %19, %17
  ret void
}

declare dso_local i32 @__isoc99_scanf(i8*, ...) #3

declare dso_local i32 @printf(i8*, ...) #3


!llvm.module.flags = !{!0}
!llvm.ident = !{!1}

!0 = !{i32 1, !"wchar_size", i32 4}
!1 = !{!"clang version 10.0.0-4ubuntu1 "}
